; ModuleID = 'source-C-CXX/39/1278.c'
source_filename = "source-C-CXX/39/1278.c"
target datalayout = "e-m:e-p270:32:32-p271:32:32-p272:64:64-i64:64-f80:128-n8:16:32:64-S128"
target triple = "x86_64-pc-linux-gnu"

@.str = private unnamed_addr constant [4 x i8] c"%lf\00", align 1
@.str.1 = private unnamed_addr constant [14 x i8] c"Invalid input\00", align 1
@.str.2 = private unnamed_addr constant [6 x i8] c"%.4lf\00", align 1

; Function Attrs: nofree nounwind sspstrong uwtable
define dso_local i32 @main() local_unnamed_addr #0 {
  %1 = alloca double, align 8
  %2 = alloca double, align 8
  %3 = alloca double, align 8
  %4 = alloca double, align 8
  %5 = alloca double, align 8
  %6 = bitcast double* %1 to i8*
  call void @llvm.lifetime.start.p0i8(i64 8, i8* nonnull %6) #4
  %7 = bitcast double* %2 to i8*
  call void @llvm.lifetime.start.p0i8(i64 8, i8* nonnull %7) #4
  %8 = bitcast double* %3 to i8*
  call void @llvm.lifetime.start.p0i8(i64 8, i8* nonnull %8) #4
  %9 = bitcast double* %4 to i8*
  call void @llvm.lifetime.start.p0i8(i64 8, i8* nonnull %9) #4
  %10 = bitcast double* %5 to i8*
  call void @llvm.lifetime.start.p0i8(i64 8, i8* nonnull %10) #4
  %11 = call i32 (i8*, ...) @__isoc99_scanf(i8* getelementptr inbounds ([4 x i8], [4 x i8]* @.str, i64 0, i64 0), double* nonnull %1)
  %12 = call i32 (i8*, ...) @__isoc99_scanf(i8* getelementptr inbounds ([4 x i8], [4 x i8]* @.str, i64 0, i64 0), double* nonnull %2)
  %13 = call i32 (i8*, ...) @__isoc99_scanf(i8* getelementptr inbounds ([4 x i8], [4 x i8]* @.str, i64 0, i64 0), double* nonnull %3)
  %14 = call i32 (i8*, ...) @__isoc99_scanf(i8* getelementptr inbounds ([4 x i8], [4 x i8]* @.str, i64 0, i64 0), double* nonnull %4)
  %15 = call i32 (i8*, ...) @__isoc99_scanf(i8* getelementptr inbounds ([4 x i8], [4 x i8]* @.str, i64 0, i64 0), double* nonnull %5)
  %16 = load double, double* %1, align 8, !tbaa !5
  %17 = load double, double* %2, align 8, !tbaa !5
  %18 = fadd double %16, %17
  %19 = load double, double* %3, align 8, !tbaa !5
  %20 = fadd double %18, %19
  %21 = load double, double* %4, align 8, !tbaa !5
  %22 = fadd double %20, %21
  %23 = fmul double %22, 5.000000e-01
  %24 = fsub double %23, %16
  %25 = fsub double %23, %17
  %26 = fmul double %24, %25
  %27 = fsub double %23, %19
  %28 = fmul double %27, %26
  %29 = fsub double %23, %21
  %30 = fmul double %29, %28
  %31 = fmul double %16, %17
  %32 = fmul double %31, %19
  %33 = fmul double %32, %21
  %34 = load double, double* %5, align 8, !tbaa !5
  %35 = fmul double %34, 0x400921FB4D12D84A
  %36 = fdiv double %35, 3.600000e+02
  %37 = call double @cos(double %36) #4
  %38 = fmul double %33, %37
  %39 = load double, double* %5, align 8, !tbaa !5
  %40 = fmul double %39, 0x400921FB4D12D84A
  %41 = fdiv double %40, 3.600000e+02
  %42 = call double @cos(double %41) #4
  %43 = fmul double %38, %42
  %44 = fsub double %30, %43
  %45 = fcmp olt double %44, 0.000000e+00
  br i1 %45, label %46, label %48

46:                                               ; preds = %0
  %47 = call i32 (i8*, ...) @printf(i8* nonnull dereferenceable(1) getelementptr inbounds ([14 x i8], [14 x i8]* @.str.1, i64 0, i64 0))
  br label %76

48:                                               ; preds = %0
  %49 = load double, double* %1, align 8, !tbaa !5
  %50 = fsub double %23, %49
  %51 = load double, double* %2, align 8, !tbaa !5
  %52 = fsub double %23, %51
  %53 = fmul double %50, %52
  %54 = load double, double* %3, align 8, !tbaa !5
  %55 = fsub double %23, %54
  %56 = fmul double %53, %55
  %57 = load double, double* %4, align 8, !tbaa !5
  %58 = fsub double %23, %57
  %59 = fmul double %56, %58
  %60 = fmul double %49, %51
  %61 = fmul double %60, %54
  %62 = fmul double %61, %57
  %63 = load double, double* %5, align 8, !tbaa !5
  %64 = fdiv double %63, 3.600000e+02
  %65 = fmul double %64, 0x400921FB4D12D84A
  %66 = call double @cos(double %65) #4
  %67 = fmul double %62, %66
  %68 = load double, double* %5, align 8, !tbaa !5
  %69 = fdiv double %68, 3.600000e+02
  %70 = fmul double %69, 0x400921FB4D12D84A
  %71 = call double @cos(double %70) #4
  %72 = fmul double %67, %71
  %73 = fsub double %59, %72
  %74 = call double @sqrt(double %73) #4
  %75 = call i32 (i8*, ...) @printf(i8* nonnull dereferenceable(1) getelementptr inbounds ([6 x i8], [6 x i8]* @.str.2, i64 0, i64 0), double %74)
  br label %76

76:                                               ; preds = %48, %46
  call void @llvm.lifetime.end.p0i8(i64 8, i8* nonnull %10) #4
  call void @llvm.lifetime.end.p0i8(i64 8, i8* nonnull %9) #4
  call void @llvm.lifetime.end.p0i8(i64 8, i8* nonnull %8) #4
  call void @llvm.lifetime.end.p0i8(i64 8, i8* nonnull %7) #4
  call void @llvm.lifetime.end.p0i8(i64 8, i8* nonnull %6) #4
  ret i32 0
}

; Function Attrs: argmemonly mustprogress nofree nosync nounwind willreturn
declare void @llvm.lifetime.start.p0i8(i64 immarg, i8* nocapture) #1

; Function Attrs: nofree nounwind
declare noundef i32 @__isoc99_scanf(i8* nocapture noundef readonly, ...) local_unnamed_addr #2

; Function Attrs: mustprogress nofree nounwind willreturn
declare double @cos(double) local_unnamed_addr #3

; Function Attrs: nofree nounwind
declare noundef i32 @printf(i8* nocapture noundef readonly, ...) local_unnamed_addr #2

; Function Attrs: mustprogress nofree nounwind willreturn
declare double @sqrt(double) local_unnamed_addr #3

; Function Attrs: argmemonly mustprogress nofree nosync nounwind willreturn
declare void @llvm.lifetime.end.p0i8(i64 immarg, i8* nocapture) #1


!llvm.module.flags = !{!0, !1, !2, !3}
!llvm.ident = !{!4}

!0 = !{i32 1, !"wchar_size", i32 4}
!1 = !{i32 7, !"PIC Level", i32 2}
!2 = !{i32 7, !"PIE Level", i32 2}
!3 = !{i32 7, !"uwtable", i32 1}
!4 = !{!"clang version 13.0.0"}
!5 = !{!6, !6, i64 0}
!6 = !{!"double", !7, i64 0}
!7 = !{!"omnipotent char", !8, i64 0}
!8 = !{!"Simple C/C++ TBAA"}
